target datalayout = "e-m:e-p270:32:32-p271:32:32-p272:64:64-i64:64-i128:128-f80:128-n8:16:32:64-S128"
target triple = "x86_64-pc-linux-gnu"

%"struct.open3d::core::TensorRef" = type { ptr, i64, i64, [5 x i64], [5 x i64] }
%"class.open3d::core::Indexer" = type <{ i64, i64, [5 x %"struct.open3d::core::TensorRef"], [2 x %"struct.open3d::core::TensorRef"], [5 x i8], [2 x i8], i8, [5 x i64], [5 x i64], i64, i8, i8, [6 x i8] }>

@.str.1 = private unnamed_addr constant [119 x i8] c"generated/home/dtcxzyw/WorkSpace/Projects/compilers/llvm-opt-benchmark/bench/open3d/Open3D/cpp/open3d/core/Indexer.cpp\00", align 1
@__PRETTY_FUNCTION__._ZN6open3d4core7Indexer9ShrinkDimElll = private unnamed_addr constant [65 x i8] c"void open3d::core::Indexer::ShrinkDim(int64_t, int64_t, int64_t)\00", align 1
@.str.63 = private unnamed_addr constant [36 x i8] c"0 <= dim < {} required, but got {}.\00", align 1
@.str.64 = private unnamed_addr constant [30 x i8] c"Invalid size {}, must be > 0.\00", align 1

; Function Attrs: mustprogress ssp uwtable
define void @_ZN6open3d4core7Indexer21UpdateContiguousFlagsEv(ptr noundef nonnull align 8 dereferenceable(842) %0) #0 align 2 {
  %2 = alloca ptr, align 8
  %3 = alloca i64, align 8
  %4 = alloca i64, align 8
  store ptr %0, ptr %2, align 8, !tbaa !4
  %5 = load ptr, ptr %2, align 8
  call void @llvm.lifetime.start.p0(i64 8, ptr %3) #27
  store i64 0, ptr %3, align 8, !tbaa !32
  br label %6

6:                                                ; preds = %21, %1
  %7 = load i64, ptr %3, align 8, !tbaa !32
  %8 = getelementptr inbounds nuw %"class.open3d::core::Indexer", ptr %5, i32 0, i32 0
  %9 = load i64, ptr %8, align 8, !tbaa !25
  %10 = icmp slt i64 %7, %9
  br i1 %10, label %12, label %11

11:                                               ; preds = %6
  call void @llvm.lifetime.end.p0(i64 8, ptr %3) #27
  br label %24

12:                                               ; preds = %6
  %13 = getelementptr inbounds nuw %"class.open3d::core::Indexer", ptr %5, i32 0, i32 2
  %14 = load i64, ptr %3, align 8, !tbaa !32
  %15 = getelementptr inbounds [5 x %"struct.open3d::core::TensorRef"], ptr %13, i64 0, i64 %14
  %16 = call noundef zeroext i1 @_ZNK6open3d4core9TensorRef12IsContiguousEv(ptr noundef nonnull align 8 dereferenceable(104) %15)
  %17 = getelementptr inbounds nuw %"class.open3d::core::Indexer", ptr %5, i32 0, i32 4
  %18 = load i64, ptr %3, align 8, !tbaa !32
  %19 = getelementptr inbounds [5 x i8], ptr %17, i64 0, i64 %18
  %20 = zext i1 %16 to i8
  store i8 %20, ptr %19, align 1, !tbaa !82
  br label %21

21:                                               ; preds = %12
  %22 = load i64, ptr %3, align 8, !tbaa !32
  %23 = add nsw i64 %22, 1
  store i64 %23, ptr %3, align 8, !tbaa !32
  br label %6, !llvm.loop !140

24:                                               ; preds = %11
  call void @llvm.lifetime.start.p0(i64 8, ptr %4) #27
  store i64 0, ptr %4, align 8, !tbaa !32
  br label %25

25:                                               ; preds = %40, %24
  %26 = load i64, ptr %4, align 8, !tbaa !32
  %27 = getelementptr inbounds nuw %"class.open3d::core::Indexer", ptr %5, i32 0, i32 1
  %28 = load i64, ptr %27, align 8, !tbaa !28
  %29 = icmp slt i64 %26, %28
  br i1 %29, label %31, label %30

30:                                               ; preds = %25
  call void @llvm.lifetime.end.p0(i64 8, ptr %4) #27
  br label %43

31:                                               ; preds = %25
  %32 = getelementptr inbounds nuw %"class.open3d::core::Indexer", ptr %5, i32 0, i32 3
  %33 = load i64, ptr %4, align 8, !tbaa !32
  %34 = getelementptr inbounds [2 x %"struct.open3d::core::TensorRef"], ptr %32, i64 0, i64 %33
  %35 = call noundef zeroext i1 @_ZNK6open3d4core9TensorRef12IsContiguousEv(ptr noundef nonnull align 8 dereferenceable(104) %34)
  %36 = getelementptr inbounds nuw %"class.open3d::core::Indexer", ptr %5, i32 0, i32 5
  %37 = load i64, ptr %4, align 8, !tbaa !32
  %38 = getelementptr inbounds [2 x i8], ptr %36, i64 0, i64 %37
  %39 = zext i1 %35 to i8
  store i8 %39, ptr %38, align 1, !tbaa !82
  br label %40

40:                                               ; preds = %31
  %41 = load i64, ptr %4, align 8, !tbaa !32
  %42 = add nsw i64 %41, 1
  store i64 %42, ptr %4, align 8, !tbaa !32
  br label %25, !llvm.loop !141

43:                                               ; preds = %30
  ret void
}

; Function Attrs: mustprogress nounwind ssp uwtable
define void @_ZN6open3d4core7Indexer20UpdatePrimaryStridesEv(ptr noundef nonnull align 8 dereferenceable(842) %0) #4 align 2 {
  %2 = alloca ptr, align 8
  %3 = alloca i64, align 8
  %4 = alloca i64, align 8
  store ptr %0, ptr %2, align 8, !tbaa !4
  %5 = load ptr, ptr %2, align 8
  call void @llvm.lifetime.start.p0(i64 8, ptr %3) #27
  store i64 1, ptr %3, align 8, !tbaa !32
  call void @llvm.lifetime.start.p0(i64 8, ptr %4) #27
  %6 = getelementptr inbounds nuw %"class.open3d::core::Indexer", ptr %5, i32 0, i32 9
  %7 = load i64, ptr %6, align 8, !tbaa !29
  %8 = sub nsw i64 %7, 1
  store i64 %8, ptr %4, align 8, !tbaa !32
  br label %9

9:                                                ; preds = %34, %1
  %10 = load i64, ptr %4, align 8, !tbaa !32
  %11 = icmp sge i64 %10, 0
  br i1 %11, label %13, label %12

12:                                               ; preds = %9
  call void @llvm.lifetime.end.p0(i64 8, ptr %4) #27
  br label %37

13:                                               ; preds = %9
  %14 = load i64, ptr %3, align 8, !tbaa !32
  %15 = getelementptr inbounds nuw %"class.open3d::core::Indexer", ptr %5, i32 0, i32 8
  %16 = load i64, ptr %4, align 8, !tbaa !32
  %17 = getelementptr inbounds [5 x i64], ptr %15, i64 0, i64 %16
  store i64 %14, ptr %17, align 8, !tbaa !32
  %18 = getelementptr inbounds nuw %"class.open3d::core::Indexer", ptr %5, i32 0, i32 7
  %19 = load i64, ptr %4, align 8, !tbaa !32
  %20 = getelementptr inbounds [5 x i64], ptr %18, i64 0, i64 %19
  %21 = load i64, ptr %20, align 8, !tbaa !32
  %22 = icmp sgt i64 %21, 1
  br i1 %22, label %23, label %30

23:                                               ; preds = %13
  %24 = load i64, ptr %3, align 8, !tbaa !32
  %25 = getelementptr inbounds nuw %"class.open3d::core::Indexer", ptr %5, i32 0, i32 7
  %26 = load i64, ptr %4, align 8, !tbaa !32
  %27 = getelementptr inbounds [5 x i64], ptr %25, i64 0, i64 %26
  %28 = load i64, ptr %27, align 8, !tbaa !32
  %29 = mul nsw i64 %24, %28
  br label %32

30:                                               ; preds = %13
  %31 = load i64, ptr %3, align 8, !tbaa !32
  br label %32

32:                                               ; preds = %30, %23
  %33 = phi i64 [ %29, %23 ], [ %31, %30 ]
  store i64 %33, ptr %3, align 8, !tbaa !32
  br label %34

34:                                               ; preds = %32
  %35 = load i64, ptr %4, align 8, !tbaa !32
  %36 = add nsw i64 %35, -1
  store i64 %36, ptr %4, align 8, !tbaa !32
  br label %9, !llvm.loop !139

37:                                               ; preds = %12
  call void @llvm.lifetime.end.p0(i64 8, ptr %3) #27
  ret void
}

; Function Attrs: mustprogress ssp uwtable
define void @_ZN6open3d4core7Indexer9ShrinkDimElll(ptr noundef nonnull align 8 dereferenceable(842) %0, i64 noundef %1, i64 noundef %2, i64 noundef %3) #0 align 2 {
  %5 = alloca ptr, align 8
  %6 = alloca i64, align 8
  %7 = alloca i64, align 8
  %8 = alloca i64, align 8
  %9 = alloca i64, align 8
  %10 = alloca i64, align 8
  store ptr %0, ptr %5, align 8, !tbaa !4
  store i64 %1, ptr %6, align 8, !tbaa !32
  store i64 %2, ptr %7, align 8, !tbaa !32
  store i64 %3, ptr %8, align 8, !tbaa !32
  %11 = load ptr, ptr %5, align 8
  %12 = load i64, ptr %6, align 8, !tbaa !32
  %13 = icmp sge i64 %12, 0
  br i1 %13, label %14, label %19

14:                                               ; preds = %4
  %15 = load i64, ptr %6, align 8, !tbaa !32
  %16 = getelementptr inbounds nuw %"class.open3d::core::Indexer", ptr %11, i32 0, i32 9
  %17 = load i64, ptr %16, align 8, !tbaa !29
  %18 = icmp slt i64 %15, %17
  br i1 %18, label %21, label %19

19:                                               ; preds = %14, %4
  %20 = getelementptr inbounds nuw %"class.open3d::core::Indexer", ptr %11, i32 0, i32 9
  call void @_ZN6open3d7utility6Logger9LogError_IJRlS3_EEEvPKciS5_S5_DpOT_(ptr noundef @.str.1, i32 noundef 367, ptr noundef @__PRETTY_FUNCTION__._ZN6open3d4core7Indexer9ShrinkDimElll, ptr noundef @.str.63, ptr noundef nonnull align 8 dereferenceable(8) %20, ptr noundef nonnull align 8 dereferenceable(8) %6) #28
  unreachable

21:                                               ; preds = %14
  %22 = load i64, ptr %8, align 8, !tbaa !32
  %23 = icmp sle i64 %22, 0
  br i1 %23, label %24, label %25

24:                                               ; preds = %21
  call void @_ZN6open3d7utility6Logger9LogError_IJRlEEEvPKciS5_S5_DpOT_(ptr noundef @.str.1, i32 noundef 371, ptr noundef @__PRETTY_FUNCTION__._ZN6open3d4core7Indexer9ShrinkDimElll, ptr noundef @.str.64, ptr noundef nonnull align 8 dereferenceable(8) %8) #28
  unreachable

25:                                               ; preds = %21
  call void @llvm.lifetime.start.p0(i64 8, ptr %9) #27
  store i64 0, ptr %9, align 8, !tbaa !32
  br label %26

26:                                               ; preds = %52, %25
  %27 = load i64, ptr %9, align 8, !tbaa !32
  %28 = getelementptr inbounds nuw %"class.open3d::core::Indexer", ptr %11, i32 0, i32 0
  %29 = load i64, ptr %28, align 8, !tbaa !25
  %30 = icmp slt i64 %27, %29
  br i1 %30, label %32, label %31

31:                                               ; preds = %26
  call void @llvm.lifetime.end.p0(i64 8, ptr %9) #27
  br label %55

32:                                               ; preds = %26
  %33 = getelementptr inbounds nuw %"class.open3d::core::Indexer", ptr %11, i32 0, i32 2
  %34 = load i64, ptr %9, align 8, !tbaa !32
  %35 = getelementptr inbounds [5 x %"struct.open3d::core::TensorRef"], ptr %33, i64 0, i64 %34
  %36 = getelementptr inbounds nuw %"struct.open3d::core::TensorRef", ptr %35, i32 0, i32 0
  %37 = load ptr, ptr %36, align 8, !tbaa !106
  %38 = getelementptr inbounds nuw %"class.open3d::core::Indexer", ptr %11, i32 0, i32 2
  %39 = load i64, ptr %9, align 8, !tbaa !32
  %40 = getelementptr inbounds [5 x %"struct.open3d::core::TensorRef"], ptr %38, i64 0, i64 %39
  %41 = getelementptr inbounds nuw %"struct.open3d::core::TensorRef", ptr %40, i32 0, i32 4
  %42 = load i64, ptr %6, align 8, !tbaa !32
  %43 = getelementptr inbounds [5 x i64], ptr %41, i64 0, i64 %42
  %44 = load i64, ptr %43, align 8, !tbaa !32
  %45 = load i64, ptr %7, align 8, !tbaa !32
  %46 = mul nsw i64 %44, %45
  %47 = getelementptr inbounds i8, ptr %37, i64 %46
  %48 = getelementptr inbounds nuw %"class.open3d::core::Indexer", ptr %11, i32 0, i32 2
  %49 = load i64, ptr %9, align 8, !tbaa !32
  %50 = getelementptr inbounds [5 x %"struct.open3d::core::TensorRef"], ptr %48, i64 0, i64 %49
  %51 = getelementptr inbounds nuw %"struct.open3d::core::TensorRef", ptr %50, i32 0, i32 0
  store ptr %47, ptr %51, align 8, !tbaa !106
  br label %52

52:                                               ; preds = %32
  %53 = load i64, ptr %9, align 8, !tbaa !32
  %54 = add nsw i64 %53, 1
  store i64 %54, ptr %9, align 8, !tbaa !32
  br label %26, !llvm.loop !884

55:                                               ; preds = %31
  call void @llvm.lifetime.start.p0(i64 8, ptr %10) #27
  store i64 0, ptr %10, align 8, !tbaa !32
  br label %56

56:                                               ; preds = %82, %55
  %57 = load i64, ptr %10, align 8, !tbaa !32
  %58 = getelementptr inbounds nuw %"class.open3d::core::Indexer", ptr %11, i32 0, i32 1
  %59 = load i64, ptr %58, align 8, !tbaa !28
  %60 = icmp slt i64 %57, %59
  br i1 %60, label %62, label %61

61:                                               ; preds = %56
  call void @llvm.lifetime.end.p0(i64 8, ptr %10) #27
  br label %85

62:                                               ; preds = %56
  %63 = getelementptr inbounds nuw %"class.open3d::core::Indexer", ptr %11, i32 0, i32 3
  %64 = load i64, ptr %10, align 8, !tbaa !32
  %65 = getelementptr inbounds [2 x %"struct.open3d::core::TensorRef"], ptr %63, i64 0, i64 %64
  %66 = getelementptr inbounds nuw %"struct.open3d::core::TensorRef", ptr %65, i32 0, i32 0
  %67 = load ptr, ptr %66, align 8, !tbaa !106
  %68 = getelementptr inbounds nuw %"class.open3d::core::Indexer", ptr %11, i32 0, i32 3
  %69 = load i64, ptr %10, align 8, !tbaa !32
  %70 = getelementptr inbounds [2 x %"struct.open3d::core::TensorRef"], ptr %68, i64 0, i64 %69
  %71 = getelementptr inbounds nuw %"struct.open3d::core::TensorRef", ptr %70, i32 0, i32 4
  %72 = load i64, ptr %6, align 8, !tbaa !32
  %73 = getelementptr inbounds [5 x i64], ptr %71, i64 0, i64 %72
  %74 = load i64, ptr %73, align 8, !tbaa !32
  %75 = load i64, ptr %7, align 8, !tbaa !32
  %76 = mul nsw i64 %74, %75
  %77 = getelementptr inbounds i8, ptr %67, i64 %76
  %78 = getelementptr inbounds nuw %"class.open3d::core::Indexer", ptr %11, i32 0, i32 3
  %79 = load i64, ptr %10, align 8, !tbaa !32
  %80 = getelementptr inbounds [2 x %"struct.open3d::core::TensorRef"], ptr %78, i64 0, i64 %79
  %81 = getelementptr inbounds nuw %"struct.open3d::core::TensorRef", ptr %80, i32 0, i32 0
  store ptr %77, ptr %81, align 8, !tbaa !106
  br label %82

82:                                               ; preds = %62
  %83 = load i64, ptr %10, align 8, !tbaa !32
  %84 = add nsw i64 %83, 1
  store i64 %84, ptr %10, align 8, !tbaa !32
  br label %56, !llvm.loop !885

85:                                               ; preds = %61
  %86 = load i64, ptr %8, align 8, !tbaa !32
  %87 = getelementptr inbounds nuw %"class.open3d::core::Indexer", ptr %11, i32 0, i32 7
  %88 = load i64, ptr %6, align 8, !tbaa !32
  %89 = getelementptr inbounds [5 x i64], ptr %87, i64 0, i64 %88
  store i64 %86, ptr %89, align 8, !tbaa !32
  call void @_ZN6open3d4core7Indexer20UpdatePrimaryStridesEv(ptr noundef nonnull align 8 dereferenceable(842) %11)
  call void @_ZN6open3d4core7Indexer21UpdateContiguousFlagsEv(ptr noundef nonnull align 8 dereferenceable(842) %11)
  %90 = load i64, ptr %8, align 8, !tbaa !32
  %91 = icmp eq i64 %90, 1
  br i1 %91, label %92, label %93

92:                                               ; preds = %85
  call void @_ZN6open3d4core7Indexer18CoalesceDimensionsEv(ptr noundef nonnull align 8 dereferenceable(842) %11)
  br label %93

93:                                               ; preds = %92, %85
  ret void
}