; Function Attrs: mustprogress ssp uwtable
define void @_ZN6open3d4core7Indexer9ShrinkDimElll(ptr noundef nonnull align 8 dereferenceable(842) %0, i64 noundef %1, i64 noundef %2, i64 noundef %3) local_unnamed_addr #0 align 2 {
  %5 = alloca i64, align 8
  %6 = alloca i64, align 8
  store i64 %1, ptr %5, align 8, !tbaa !42
  store i64 %3, ptr %6, align 8, !tbaa !42
  %7 = icmp sgt i64 %1, -1
  %8 = getelementptr inbounds nuw i8, ptr %0, i64 832
  %9 = load i64, ptr %8, align 8
  %10 = icmp slt i64 %1, %9
  %or.cond = select i1 %7, i1 %10, i1 false
  br i1 %or.cond, label %12, label %11

11:                                               ; preds = %4
  call void @_ZN6open3d7utility6Logger9LogError_IJRlS3_EEEvPKciS5_S5_DpOT_(ptr noundef nonnull @.str.1, i32 noundef 367, ptr noundef nonnull @__PRETTY_FUNCTION__._ZN6open3d4core7Indexer9ShrinkDimElll, ptr noundef nonnull @.str.63, ptr noundef nonnull align 8 dereferenceable(8) %8, ptr noundef nonnull align 8 dereferenceable(8) %5) #36
  unreachable

12:                                               ; preds = %4
  %13 = icmp slt i64 %3, 1
  br i1 %13, label %17, label %.preheader17

.preheader17:                                     ; preds = %12
  %14 = load i64, ptr %0, align 8, !tbaa !37
  %15 = icmp sgt i64 %14, 0
  br i1 %15, label %.lr.ph, label %.preheader

.lr.ph:                                           ; preds = %.preheader17
  %16 = getelementptr inbounds nuw i8, ptr %0, i64 16
  br label %22

17:                                               ; preds = %12
  call void @_ZN6open3d7utility6Logger9LogError_IJRlEEEvPKciS5_S5_DpOT_(ptr noundef nonnull @.str.1, i32 noundef 371, ptr noundef nonnull @__PRETTY_FUNCTION__._ZN6open3d4core7Indexer9ShrinkDimElll, ptr noundef nonnull @.str.64, ptr noundef nonnull align 8 dereferenceable(8) %6) #36
  unreachable

.preheader:                                       ; preds = %22, %.preheader17
  %18 = getelementptr inbounds nuw i8, ptr %0, i64 8
  %19 = load i64, ptr %18, align 8, !tbaa !38
  %20 = icmp sgt i64 %19, 0
  br i1 %20, label %.lr.ph20, label %._crit_edge

.lr.ph20:                                         ; preds = %.preheader
  %21 = getelementptr inbounds nuw i8, ptr %0, i64 536
  br label %68

22:                                               ; preds = %.lr.ph, %22
  %.01218 = phi i64 [ 0, %.lr.ph ], [ %30, %22 ]
  %23 = getelementptr inbounds nuw [5 x %"struct.open3d::core::TensorRef"], ptr %16, i64 0, i64 %.01218
  %24 = load ptr, ptr %23, align 8, !tbaa !61
  %25 = getelementptr inbounds nuw i8, ptr %23, i64 64
  %26 = getelementptr inbounds nuw [5 x i64], ptr %25, i64 0, i64 %1
  %27 = load i64, ptr %26, align 8, !tbaa !42
  %28 = mul nsw i64 %27, %2
  %29 = getelementptr inbounds i8, ptr %24, i64 %28
  store ptr %29, ptr %23, align 8, !tbaa !61
  %30 = add nuw nsw i64 %.01218, 1
  %exitcond.not = icmp eq i64 %30, %14
  br i1 %exitcond.not, label %.preheader, label %22, !llvm.loop !733

._crit_edge:                                      ; preds = %68, %.preheader
  %31 = getelementptr inbounds nuw i8, ptr %0, i64 752
  %32 = getelementptr inbounds nuw [5 x i64], ptr %31, i64 0, i64 %1
  store i64 %3, ptr %32, align 8, !tbaa !42
  %33 = load i64, ptr %8, align 8, !tbaa !31
  %34 = icmp sgt i64 %33, 0
  br i1 %34, label %.lr.ph.i, label %_ZN6open3d4core7Indexer20UpdatePrimaryStridesEv.exit

.lr.ph.i:                                         ; preds = %._crit_edge
  %35 = getelementptr inbounds nuw i8, ptr %0, i64 792
  br label %36

36:                                               ; preds = %36, %.lr.ph.i
  %.0.in11.i = phi i64 [ %33, %.lr.ph.i ], [ %.0.i, %36 ]
  %.0810.i = phi i64 [ 1, %.lr.ph.i ], [ %41, %36 ]
  %.0.i = add nsw i64 %.0.in11.i, -1
  %37 = getelementptr inbounds nuw [5 x i64], ptr %35, i64 0, i64 %.0.i
  store i64 %.0810.i, ptr %37, align 8, !tbaa !42
  %38 = getelementptr inbounds nuw [5 x i64], ptr %31, i64 0, i64 %.0.i
  %39 = load i64, ptr %38, align 8, !tbaa !42
  %40 = tail call i64 @llvm.smax.i64(i64 %39, i64 1)
  %41 = mul nuw nsw i64 %40, %.0810.i
  %42 = icmp samesign ugt i64 %.0.in11.i, 1
  br i1 %42, label %36, label %_ZN6open3d4core7Indexer20UpdatePrimaryStridesEv.exit.loopexit, !llvm.loop !78

_ZN6open3d4core7Indexer20UpdatePrimaryStridesEv.exit.loopexit: ; preds = %36
  %.pre = load i64, ptr %0, align 8, !tbaa !37
  br label %_ZN6open3d4core7Indexer20UpdatePrimaryStridesEv.exit

_ZN6open3d4core7Indexer20UpdatePrimaryStridesEv.exit: ; preds = %_ZN6open3d4core7Indexer20UpdatePrimaryStridesEv.exit.loopexit, %._crit_edge
  %43 = phi i64 [ %.pre, %_ZN6open3d4core7Indexer20UpdatePrimaryStridesEv.exit.loopexit ], [ %14, %._crit_edge ]
  %44 = icmp sgt i64 %43, 0
  br i1 %44, label %.lr.ph.i16, label %.preheader.i

.lr.ph.i16:                                       ; preds = %_ZN6open3d4core7Indexer20UpdatePrimaryStridesEv.exit
  %45 = getelementptr inbounds nuw i8, ptr %0, i64 16
  %46 = getelementptr inbounds nuw i8, ptr %0, i64 744
  br label %51

.preheader.i:                                     ; preds = %51, %_ZN6open3d4core7Indexer20UpdatePrimaryStridesEv.exit
  %47 = load i64, ptr %18, align 8, !tbaa !38
  %48 = icmp sgt i64 %47, 0
  br i1 %48, label %.lr.ph11.i, label %_ZN6open3d4core7Indexer21UpdateContiguousFlagsEv.exit

.lr.ph11.i:                                       ; preds = %.preheader.i
  %49 = getelementptr inbounds nuw i8, ptr %0, i64 536
  %50 = getelementptr inbounds nuw i8, ptr %0, i64 749
  br label %59

51:                                               ; preds = %51, %.lr.ph.i16
  %.089.i = phi i64 [ 0, %.lr.ph.i16 ], [ %56, %51 ]
  %52 = getelementptr inbounds nuw [5 x %"struct.open3d::core::TensorRef"], ptr %45, i64 0, i64 %.089.i
  %53 = tail call noundef zeroext i1 @_ZNK6open3d4core9TensorRef12IsContiguousEv(ptr noundef nonnull align 8 dereferenceable(104) %52)
  %54 = getelementptr inbounds nuw [5 x i8], ptr %46, i64 0, i64 %.089.i
  %55 = zext i1 %53 to i8
  store i8 %55, ptr %54, align 1, !tbaa !79
  %56 = add nuw nsw i64 %.089.i, 1
  %57 = load i64, ptr %0, align 8, !tbaa !37
  %58 = icmp slt i64 %56, %57
  br i1 %58, label %51, label %.preheader.i, !llvm.loop !80

59:                                               ; preds = %59, %.lr.ph11.i
  %.010.i = phi i64 [ 0, %.lr.ph11.i ], [ %64, %59 ]
  %60 = getelementptr inbounds nuw [2 x %"struct.open3d::core::TensorRef"], ptr %49, i64 0, i64 %.010.i
  %61 = tail call noundef zeroext i1 @_ZNK6open3d4core9TensorRef12IsContiguousEv(ptr noundef nonnull align 8 dereferenceable(104) %60)
  %62 = getelementptr inbounds nuw [2 x i8], ptr %50, i64 0, i64 %.010.i
  %63 = zext i1 %61 to i8
  store i8 %63, ptr %62, align 1, !tbaa !79
  %64 = add nuw nsw i64 %.010.i, 1
  %65 = load i64, ptr %18, align 8, !tbaa !38
  %66 = icmp slt i64 %64, %65
  br i1 %66, label %59, label %_ZN6open3d4core7Indexer21UpdateContiguousFlagsEv.exit, !llvm.loop !81

_ZN6open3d4core7Indexer21UpdateContiguousFlagsEv.exit: ; preds = %59, %.preheader.i
  %67 = icmp eq i64 %3, 1
  br i1 %67, label %77, label %78

68:                                               ; preds = %.lr.ph20, %68
  %.019 = phi i64 [ 0, %.lr.ph20 ], [ %76, %68 ]
  %69 = getelementptr inbounds nuw [2 x %"struct.open3d::core::TensorRef"], ptr %21, i64 0, i64 %.019
  %70 = load ptr, ptr %69, align 8, !tbaa !61
  %71 = getelementptr inbounds nuw i8, ptr %69, i64 64
  %72 = getelementptr inbounds nuw [5 x i64], ptr %71, i64 0, i64 %1
  %73 = load i64, ptr %72, align 8, !tbaa !42
  %74 = mul nsw i64 %73, %2
  %75 = getelementptr inbounds i8, ptr %70, i64 %74
  store ptr %75, ptr %69, align 8, !tbaa !61
  %76 = add nuw nsw i64 %.019, 1
  %exitcond21.not = icmp eq i64 %76, %19
  br i1 %exitcond21.not, label %._crit_edge, label %68, !llvm.loop !734

77:                                               ; preds = %_ZN6open3d4core7Indexer21UpdateContiguousFlagsEv.exit
  tail call void @_ZN6open3d4core7Indexer18CoalesceDimensionsEv(ptr noundef nonnull align 8 dereferenceable(842) %0)
  br label %78

78:                                               ; preds = %77, %_ZN6open3d4core7Indexer21UpdateContiguousFlagsEv.exit
  ret void
}